; Function Attrs: mustprogress nounwind uwtable
define hidden noundef ptr @_ZN11StringTable13lookup_sharedEPKti(ptr noundef %0, i32 noundef %1) local_unnamed_addr #0 align 2 {
  %3 = icmp sgt i32 %1, 0
  br i1 %3, label %.lr.ph.i, label %_ZN16java_lang_String9hash_codeEPKti.exit

.lr.ph.i:                                         ; preds = %2, %.lr.ph.i
  %.08.i = phi i32 [ %8, %.lr.ph.i ], [ 0, %2 ]
  %.047.i = phi i32 [ %4, %.lr.ph.i ], [ %1, %2 ]
  %.056.i = phi ptr [ %9, %.lr.ph.i ], [ %0, %2 ]
  %4 = add nsw i32 %.047.i, -1
  %5 = mul i32 %.08.i, 31
  %6 = load i16, ptr %.056.i, align 2
  %7 = zext i16 %6 to i32
  %8 = add i32 %5, %7
  %9 = getelementptr inbounds i8, ptr %.056.i, i64 2
  %10 = icmp ugt i32 %.047.i, 1
  br i1 %10, label %.lr.ph.i, label %_ZN16java_lang_String9hash_codeEPKti.exit, !llvm.loop !12

_ZN16java_lang_String9hash_codeEPKti.exit:        ; preds = %.lr.ph.i, %2
  %.0.lcssa.i = phi i32 [ 0, %2 ], [ %8, %.lr.ph.i ]
  %11 = tail call noundef ptr @_ZNK16CompactHashtableIPKtP7oopDescXadL_ZN11StringTable34read_string_from_compact_hashtableEPhjEEXadL_ZN16java_lang_String6equalsES3_S1_iEEE6lookupES1_ji(ptr noundef nonnull align 8 dereferenceable(32) @_ZL13_shared_table, ptr noundef %0, i32 noundef %.0.lcssa.i, i32 noundef %1)
  ret ptr %11
}